; Function Attrs: mustprogress uwtable
define dso_local void @_ZN7testing8UnitTestC2Ev(ptr noundef nonnull align 8 dereferenceable(72) initializes((0, 8)) %0) unnamed_addr #3 align 2 personality ptr @__gxx_personality_v0 {
  store ptr getelementptr inbounds nuw inrange(-16, 16) (i8, ptr @_ZTVN7testing8UnitTestE, i64 16), ptr %0, align 8, !tbaa !33
  %2 = getelementptr inbounds nuw i8, ptr %0, i64 8
  tail call void @_ZN7testing8internal5MutexC2Ev(ptr noundef nonnull align 8 dereferenceable(56) %2)
  %3 = invoke noalias noundef nonnull dereferenceable(720) ptr @_Znwm(i64 noundef 720) #56
          to label %4 unwind label %7

4:                                                ; preds = %1
  invoke void @_ZN7testing8internal12UnitTestImplC2EPNS_8UnitTestE(ptr noundef nonnull align 8 dereferenceable(713) %3, ptr noundef nonnull %0)
          to label %5 unwind label %9

5:                                                ; preds = %4
  %6 = getelementptr inbounds nuw i8, ptr %0, i64 64
  store ptr %3, ptr %6, align 8, !tbaa !57
  ret void

7:                                                ; preds = %1
  %8 = landingpad { ptr, i32 }
          cleanup
  br label %11

9:                                                ; preds = %4
  %10 = landingpad { ptr, i32 }
          cleanup
  tail call void @_ZdlPvm(ptr noundef nonnull %3, i64 noundef 720) #58
  br label %11

11:                                               ; preds = %9, %7
  %.pn = phi { ptr, i32 } [ %10, %9 ], [ %8, %7 ]
  tail call void @_ZN7testing8internal5MutexD2Ev(ptr noundef nonnull align 8 dereferenceable(56) %2) #57
  resume { ptr, i32 } %.pn
}